; ModuleID = '29/1498.c'
source_filename = "29/1498.c"
target datalayout = "e-m:e-p270:32:32-p271:32:32-p272:64:64-i64:64-f80:128-n8:16:32:64-S128"
target triple = "x86_64-pc-linux-gnu"

@.str = private unnamed_addr constant [3 x i8] c"%d\00", align 1
@.str.1 = private unnamed_addr constant [8 x i8] c"%0.3lf\0A\00", align 1

; Function Attrs: noinline nounwind uwtable
define dso_local i32 @main() #0 {
  %1 = alloca i32, align 4
  %2 = alloca i32, align 4
  %3 = alloca i32, align 4
  %4 = alloca i32, align 4
  %5 = alloca i32, align 4
  %6 = alloca double, align 8
  store i32 0, i32* %1, align 4
  %7 = call i32 (i8*, ...) @__isoc99_scanf(i8* getelementptr inbounds ([3 x i8], [3 x i8]* @.str, i64 0, i64 0), i32* %2)
  store i32 0, i32* %3, align 4
  br label %8

8:                                                ; preds = %36, %0
  %9 = load i32, i32* %3, align 4
  %10 = load i32, i32* %2, align 4
  %11 = icmp slt i32 %9, %10
  br i1 %11, label %12, label %39

12:                                               ; preds = %8
  %13 = call i32 (i8*, ...) @__isoc99_scanf(i8* getelementptr inbounds ([3 x i8], [3 x i8]* @.str, i64 0, i64 0), i32* %5)
  store double 0.000000e+00, double* %6, align 8
  store i32 1, i32* %4, align 4
  br label %14

14:                                               ; preds = %30, %12
  %15 = load i32, i32* %4, align 4
  %16 = load i32, i32* %5, align 4
  %17 = icmp sle i32 %15, %16
  br i1 %17, label %18, label %33

18:                                               ; preds = %14
  %19 = load i32, i32* %4, align 4
  %20 = add nsw i32 %19, 1
  %21 = call i32 @fei(i32 %20)
  %22 = sitofp i32 %21 to double
  %23 = fmul double 1.000000e+00, %22
  %24 = load i32, i32* %4, align 4
  %25 = call i32 @fei(i32 %24)
  %26 = sitofp i32 %25 to double
  %27 = fdiv double %23, %26
  %28 = load double, double* %6, align 8
  %29 = fadd double %28, %27
  store double %29, double* %6, align 8
  br label %30

30:                                               ; preds = %18
  %31 = load i32, i32* %4, align 4
  %32 = add nsw i32 %31, 1
  store i32 %32, i32* %4, align 4
  br label %14

33:                                               ; preds = %14
  %34 = load double, double* %6, align 8
  %35 = call i32 (i8*, ...) @printf(i8* getelementptr inbounds ([8 x i8], [8 x i8]* @.str.1, i64 0, i64 0), double %34)
  br label %36

36:                                               ; preds = %33
  %37 = load i32, i32* %3, align 4
  %38 = add nsw i32 %37, 1
  store i32 %38, i32* %3, align 4
  br label %8

39:                                               ; preds = %8
  ret i32 0
}

declare dso_local i32 @__isoc99_scanf(i8*, ...) #1

; Function Attrs: noinline nounwind uwtable
define dso_local i32 @fei(i32 %0) #0 {
  %2 = alloca i32, align 4
  %3 = alloca i32, align 4
  %4 = alloca i32, align 4
  %5 = alloca i32, align 4
  %6 = alloca i32, align 4
  %7 = alloca i32, align 4
  store i32 %0, i32* %3, align 4
  store i32 1, i32* %6, align 4
  store i32 2, i32* %7, align 4
  %8 = load i32, i32* %3, align 4
  %9 = icmp eq i32 %8, 1
  br i1 %9, label %10, label %12

10:                                               ; preds = %1
  %11 = load i32, i32* %6, align 4
  store i32 %11, i32* %2, align 4
  br label %36

12:                                               ; preds = %1
  %13 = load i32, i32* %3, align 4
  %14 = icmp eq i32 %13, 2
  br i1 %14, label %15, label %19

15:                                               ; preds = %12
  %16 = load i32, i32* %6, align 4
  %17 = load i32, i32* %6, align 4
  %18 = add nsw i32 %16, %17
  store i32 %18, i32* %2, align 4
  br label %36

19:                                               ; preds = %12
  store i32 0, i32* %5, align 4
  br label %20

20:                                               ; preds = %31, %19
  %21 = load i32, i32* %5, align 4
  %22 = load i32, i32* %3, align 4
  %23 = sub nsw i32 %22, 2
  %24 = icmp slt i32 %21, %23
  br i1 %24, label %25, label %34

25:                                               ; preds = %20
  %26 = load i32, i32* %7, align 4
  %27 = load i32, i32* %6, align 4
  %28 = add nsw i32 %26, %27
  store i32 %28, i32* %4, align 4
  %29 = load i32, i32* %7, align 4
  store i32 %29, i32* %6, align 4
  %30 = load i32, i32* %4, align 4
  store i32 %30, i32* %7, align 4
  br label %31

31:                                               ; preds = %25
  %32 = load i32, i32* %5, align 4
  %33 = add nsw i32 %32, 1
  store i32 %33, i32* %5, align 4
  br label %20

34:                                               ; preds = %20
  %35 = load i32, i32* %7, align 4
  store i32 %35, i32* %2, align 4
  br label %36

36:                                               ; preds = %34, %15, %10
  %37 = load i32, i32* %2, align 4
  ret i32 %37
}

declare dso_local i32 @printf(i8*, ...) #1


!llvm.module.flags = !{!0}
!llvm.ident = !{!1}

!0 = !{i32 1, !"wchar_size", i32 4}
!1 = !{!"clang version 10.0.0-4ubuntu1 "}
